ccopy_reg
_reconstructor
p0
(cgoogle.oauth2.credentials
Credentials
p1
c__builtin__
object
p2
Ntp3
Rp4
(dp5
S'_quota_project_id'
p6
NsS'_token_uri'
p7
Vhttps://oauth2.googleapis.com/token
p8
sS'_client_secret'
p9
VPIGDY67YC6p_BGxPuPP5Om_a
p10
sS'_id_token'
p11
NsS'token'
p12
Vya29.a0AfH6SMBEluv9smH4McqGP0mCnUOYHhqa_15LRRp8BnTvvmAmhYsJyJgEGqvT8P-c2-314qxu4__mrARIUvSPazHqbE4jF6IQQSHZm9YLe1rlCpbtCPugoexzbo8O0_LKEQHua80dBsL_9-mq6EVNo1RNbsixFsMfVY34
p13
sS'_refresh_token'
p14
V1//045IArWV-ZeJlCgYIARAAGAQSNwF-L9IrwP0kS90cZzJ5AR70iqPlvSSjhz3l3YQJ4vxL8777uMTc-3sIrEMN5rOxgIQqXkmYnhE
p15
sS'_scopes'
p16
(lp17
S'https://www.googleapis.com/auth/spreadsheets.readonly'
p18
asS'_client_id'
p19
V715037785973-7ujnam3iuobs0amuo4usk2tj725eouvq.apps.googleusercontent.com
p20
sS'expiry'
p21
cdatetime
datetime
p22
(S'\x07\xe4\x05\x0f\x03/$\x06\x85\xe7'
p23
tp24
Rp25
sb.